target datalayout = "e-m:e-p270:32:32-p271:32:32-p272:64:64-i64:64-i128:128-f80:128-n8:16:32:64-S128"
target triple = "x86_64-unknown-linux-gnu"

%struct.MachineClass = type { %struct.ObjectClass, ptr, ptr, ptr, ptr, ptr, ptr, ptr, ptr, ptr, i32, i32, i32, i32, i32, i8, i8, ptr, ptr, ptr, ptr, ptr, ptr, i64, ptr, i8, i8, i8, i32, i8, i8, i32, ptr, ptr, i8, i8, i8, i8, i8, i8, i8, i8, %struct.SMPCompatProps, ptr, ptr, ptr, ptr, ptr, ptr, ptr }
%struct.ObjectClass = type { ptr, ptr, [4 x ptr], [4 x ptr], ptr, ptr }
%struct.SMPCompatProps = type { i8, i8, i8, i8, i8, i8 }
%struct._GSList = type { ptr, ptr }
%struct.MachineInfo = type { ptr, ptr, i8, i8, i64, i8, i8, i8, ptr, ptr, i8 }
%struct.MachineInfoList = type { ptr, ptr }

@.str.1 = private unnamed_addr constant [8 x i8] c"machine\00", align 1
@.str.2 = private unnamed_addr constant [5 x i8] c"acpi\00", align 1

; Function Attrs: nounwind sspstrong uwtable
define dso_local ptr @qmp_query_machines(ptr noundef %errp) #0 {
entry:
  %errp.addr = alloca ptr, align 8
  %el = alloca ptr, align 8
  %machines = alloca ptr, align 8
  %mach_list = alloca ptr, align 8
  %mc = alloca ptr, align 8
  %info = alloca ptr, align 8
  %_tmp = alloca ptr, align 8
  store ptr %errp, ptr %errp.addr, align 8
  %call = call ptr @object_class_get_list(ptr noundef @.str.1, i1 noundef zeroext false)
  store ptr %call, ptr %machines, align 8
  store ptr null, ptr %mach_list, align 8
  %0 = load ptr, ptr %machines, align 8
  store ptr %0, ptr %el, align 8
  br label %for.cond

for.cond:                                         ; preds = %for.inc, %entry
  %1 = load ptr, ptr %el, align 8
  %tobool = icmp ne ptr %1, null
  br i1 %tobool, label %for.body, label %for.end

for.body:                                         ; preds = %for.cond
  %2 = load ptr, ptr %el, align 8
  %data = getelementptr inbounds %struct._GSList, ptr %2, i32 0, i32 0
  %3 = load ptr, ptr %data, align 8
  store ptr %3, ptr %mc, align 8
  %call1 = call noalias ptr @g_malloc0(i64 noundef 64) #9
  store ptr %call1, ptr %info, align 8
  %4 = load ptr, ptr %mc, align 8
  %is_default = getelementptr inbounds %struct.MachineClass, ptr %4, i32 0, i32 16
  %5 = load i8, ptr %is_default, align 1
  %tobool2 = trunc i8 %5 to i1
  br i1 %tobool2, label %if.then, label %if.end

if.then:                                          ; preds = %for.body
  %6 = load ptr, ptr %info, align 8
  %has_is_default = getelementptr inbounds %struct.MachineInfo, ptr %6, i32 0, i32 2
  store i8 1, ptr %has_is_default, align 8
  %7 = load ptr, ptr %info, align 8
  %is_default3 = getelementptr inbounds %struct.MachineInfo, ptr %7, i32 0, i32 3
  store i8 1, ptr %is_default3, align 1
  br label %if.end

if.end:                                           ; preds = %if.then, %for.body
  %8 = load ptr, ptr %mc, align 8
  %alias = getelementptr inbounds %struct.MachineClass, ptr %8, i32 0, i32 3
  %9 = load ptr, ptr %alias, align 8
  %tobool4 = icmp ne ptr %9, null
  br i1 %tobool4, label %if.then5, label %if.end9

if.then5:                                         ; preds = %if.end
  %10 = load ptr, ptr %mc, align 8
  %alias6 = getelementptr inbounds %struct.MachineClass, ptr %10, i32 0, i32 3
  %11 = load ptr, ptr %alias6, align 8
  %call7 = call noalias ptr @g_strdup(ptr noundef %11)
  %12 = load ptr, ptr %info, align 8
  %alias8 = getelementptr inbounds %struct.MachineInfo, ptr %12, i32 0, i32 1
  store ptr %call7, ptr %alias8, align 8
  br label %if.end9

if.end9:                                          ; preds = %if.then5, %if.end
  %13 = load ptr, ptr %mc, align 8
  %name = getelementptr inbounds %struct.MachineClass, ptr %13, i32 0, i32 2
  %14 = load ptr, ptr %name, align 8
  %call10 = call noalias ptr @g_strdup(ptr noundef %14)
  %15 = load ptr, ptr %info, align 8
  %name11 = getelementptr inbounds %struct.MachineInfo, ptr %15, i32 0, i32 0
  store ptr %call10, ptr %name11, align 8
  %16 = load ptr, ptr %mc, align 8
  %max_cpus = getelementptr inbounds %struct.MachineClass, ptr %16, i32 0, i32 12
  %17 = load i32, ptr %max_cpus, align 8
  %tobool12 = icmp ne i32 %17, 0
  br i1 %tobool12, label %cond.false, label %cond.true

cond.true:                                        ; preds = %if.end9
  br label %cond.end

cond.false:                                       ; preds = %if.end9
  %18 = load ptr, ptr %mc, align 8
  %max_cpus13 = getelementptr inbounds %struct.MachineClass, ptr %18, i32 0, i32 12
  %19 = load i32, ptr %max_cpus13, align 8
  br label %cond.end

cond.end:                                         ; preds = %cond.false, %cond.true
  %cond = phi i32 [ 1, %cond.true ], [ %19, %cond.false ]
  %conv = sext i32 %cond to i64
  %20 = load ptr, ptr %info, align 8
  %cpu_max = getelementptr inbounds %struct.MachineInfo, ptr %20, i32 0, i32 4
  store i64 %conv, ptr %cpu_max, align 8
  %21 = load ptr, ptr %mc, align 8
  %has_hotpluggable_cpus = getelementptr inbounds %struct.MachineClass, ptr %21, i32 0, i32 29
  %22 = load i8, ptr %has_hotpluggable_cpus, align 8
  %tobool14 = trunc i8 %22 to i1
  %23 = load ptr, ptr %info, align 8
  %hotpluggable_cpus = getelementptr inbounds %struct.MachineInfo, ptr %23, i32 0, i32 5
  %frombool = zext i1 %tobool14 to i8
  store i8 %frombool, ptr %hotpluggable_cpus, align 8
  %24 = load ptr, ptr %mc, align 8
  %numa_mem_supported = getelementptr inbounds %struct.MachineClass, ptr %24, i32 0, i32 39
  %25 = load i8, ptr %numa_mem_supported, align 1
  %tobool15 = trunc i8 %25 to i1
  %26 = load ptr, ptr %info, align 8
  %numa_mem_supported16 = getelementptr inbounds %struct.MachineInfo, ptr %26, i32 0, i32 6
  %frombool17 = zext i1 %tobool15 to i8
  store i8 %frombool17, ptr %numa_mem_supported16, align 1
  %27 = load ptr, ptr %mc, align 8
  %deprecation_reason = getelementptr inbounds %struct.MachineClass, ptr %27, i32 0, i32 5
  %28 = load ptr, ptr %deprecation_reason, align 8
  %tobool18 = icmp ne ptr %28, null
  %lnot = xor i1 %tobool18, true
  %lnot19 = xor i1 %lnot, true
  %29 = load ptr, ptr %info, align 8
  %deprecated = getelementptr inbounds %struct.MachineInfo, ptr %29, i32 0, i32 7
  %frombool20 = zext i1 %lnot19 to i8
  store i8 %frombool20, ptr %deprecated, align 2
  %30 = load ptr, ptr %mc, align 8
  %call21 = call ptr @object_class_property_find(ptr noundef %30, ptr noundef @.str.2)
  %tobool22 = icmp ne ptr %call21, null
  %lnot23 = xor i1 %tobool22, true
  %lnot24 = xor i1 %lnot23, true
  %31 = load ptr, ptr %info, align 8
  %acpi = getelementptr inbounds %struct.MachineInfo, ptr %31, i32 0, i32 10
  %frombool25 = zext i1 %lnot24 to i8
  store i8 %frombool25, ptr %acpi, align 8
  %32 = load ptr, ptr %mc, align 8
  %default_cpu_type = getelementptr inbounds %struct.MachineClass, ptr %32, i32 0, i32 24
  %33 = load ptr, ptr %default_cpu_type, align 8
  %tobool26 = icmp ne ptr %33, null
  br i1 %tobool26, label %if.then27, label %if.end31

if.then27:                                        ; preds = %cond.end
  %34 = load ptr, ptr %mc, align 8
  %default_cpu_type28 = getelementptr inbounds %struct.MachineClass, ptr %34, i32 0, i32 24
  %35 = load ptr, ptr %default_cpu_type28, align 8
  %call29 = call noalias ptr @g_strdup(ptr noundef %35)
  %36 = load ptr, ptr %info, align 8
  %default_cpu_type30 = getelementptr inbounds %struct.MachineInfo, ptr %36, i32 0, i32 8
  store ptr %call29, ptr %default_cpu_type30, align 8
  br label %if.end31

if.end31:                                         ; preds = %if.then27, %cond.end
  %37 = load ptr, ptr %mc, align 8
  %default_ram_id = getelementptr inbounds %struct.MachineClass, ptr %37, i32 0, i32 43
  %38 = load ptr, ptr %default_ram_id, align 8
  %tobool32 = icmp ne ptr %38, null
  br i1 %tobool32, label %if.then33, label %if.end37

if.then33:                                        ; preds = %if.end31
  %39 = load ptr, ptr %mc, align 8
  %default_ram_id34 = getelementptr inbounds %struct.MachineClass, ptr %39, i32 0, i32 43
  %40 = load ptr, ptr %default_ram_id34, align 8
  %call35 = call noalias ptr @g_strdup(ptr noundef %40)
  %41 = load ptr, ptr %info, align 8
  %default_ram_id36 = getelementptr inbounds %struct.MachineInfo, ptr %41, i32 0, i32 9
  store ptr %call35, ptr %default_ram_id36, align 8
  br label %if.end37

if.end37:                                         ; preds = %if.then33, %if.end31
  br label %do.body

do.body:                                          ; preds = %if.end37
  %call38 = call noalias ptr @g_malloc(i64 noundef 16) #9
  store ptr %call38, ptr %_tmp, align 8
  %42 = load ptr, ptr %info, align 8
  %43 = load ptr, ptr %_tmp, align 8
  %value = getelementptr inbounds %struct.MachineInfoList, ptr %43, i32 0, i32 1
  store ptr %42, ptr %value, align 8
  %44 = load ptr, ptr %mach_list, align 8
  %45 = load ptr, ptr %_tmp, align 8
  %next = getelementptr inbounds %struct.MachineInfoList, ptr %45, i32 0, i32 0
  store ptr %44, ptr %next, align 8
  %46 = load ptr, ptr %_tmp, align 8
  store ptr %46, ptr %mach_list, align 8
  br label %do.end

do.end:                                           ; preds = %do.body
  br label %for.inc

for.inc:                                          ; preds = %do.end
  %47 = load ptr, ptr %el, align 8
  %next39 = getelementptr inbounds %struct._GSList, ptr %47, i32 0, i32 1
  %48 = load ptr, ptr %next39, align 8
  store ptr %48, ptr %el, align 8
  br label %for.cond, !llvm.loop !9

for.end:                                          ; preds = %for.cond
  %49 = load ptr, ptr %machines, align 8
  call void @g_slist_free(ptr noundef %49)
  %50 = load ptr, ptr %mach_list, align 8
  ret ptr %50
}