; Function Attrs: nounwind sspstrong uwtable
define dso_local noundef ptr @qmp_query_machines(ptr noundef readnone captures(none) %errp) local_unnamed_addr #0 {
entry:
  %call = tail call ptr @object_class_get_list(ptr noundef nonnull @.str.1, i1 noundef zeroext false) #7
  %tobool.not34 = icmp eq ptr %call, null
  br i1 %tobool.not34, label %for.end, label %for.body

for.body:                                         ; preds = %entry, %do.body
  %el.036 = phi ptr [ %10, %do.body ], [ %call, %entry ]
  %mach_list.035 = phi ptr [ %call38, %do.body ], [ null, %entry ]
  %0 = load ptr, ptr %el.036, align 8
  %call1 = tail call noalias dereferenceable_or_null(64) ptr @g_malloc0(i64 noundef 64) #8
  %is_default = getelementptr inbounds nuw i8, ptr %0, i64 189
  %1 = load i8, ptr %is_default, align 1
  %tobool2 = trunc i8 %1 to i1
  br i1 %tobool2, label %if.then, label %if.end

if.then:                                          ; preds = %for.body
  %has_is_default = getelementptr inbounds nuw i8, ptr %call1, i64 16
  store i8 1, ptr %has_is_default, align 8
  %is_default3 = getelementptr inbounds nuw i8, ptr %call1, i64 17
  store i8 1, ptr %is_default3, align 1
  br label %if.end

if.end:                                           ; preds = %if.then, %for.body
  %alias = getelementptr inbounds nuw i8, ptr %0, i64 112
  %2 = load ptr, ptr %alias, align 8
  %tobool4.not = icmp eq ptr %2, null
  br i1 %tobool4.not, label %if.end9, label %if.then5

if.then5:                                         ; preds = %if.end
  %call7 = tail call noalias ptr @g_strdup(ptr noundef nonnull %2) #7
  %alias8 = getelementptr inbounds nuw i8, ptr %call1, i64 8
  store ptr %call7, ptr %alias8, align 8
  br label %if.end9

if.end9:                                          ; preds = %if.then5, %if.end
  %name = getelementptr inbounds nuw i8, ptr %0, i64 104
  %3 = load ptr, ptr %name, align 8
  %call10 = tail call noalias ptr @g_strdup(ptr noundef %3) #7
  store ptr %call10, ptr %call1, align 8
  %max_cpus = getelementptr inbounds nuw i8, ptr %0, i64 176
  %4 = load i32, ptr %max_cpus, align 8
  %narrow = tail call i32 @llvm.umax.i32(i32 %4, i32 1)
  %spec.select = sext i32 %narrow to i64
  %cpu_max = getelementptr inbounds nuw i8, ptr %call1, i64 24
  store i64 %spec.select, ptr %cpu_max, align 8
  %has_hotpluggable_cpus = getelementptr inbounds nuw i8, ptr %0, i64 264
  %5 = load i8, ptr %has_hotpluggable_cpus, align 8
  %hotpluggable_cpus = getelementptr inbounds nuw i8, ptr %call1, i64 32
  %frombool = and i8 %5, 1
  store i8 %frombool, ptr %hotpluggable_cpus, align 8
  %numa_mem_supported = getelementptr inbounds nuw i8, ptr %0, i64 293
  %6 = load i8, ptr %numa_mem_supported, align 1
  %numa_mem_supported16 = getelementptr inbounds nuw i8, ptr %call1, i64 33
  %frombool17 = and i8 %6, 1
  store i8 %frombool17, ptr %numa_mem_supported16, align 1
  %deprecation_reason = getelementptr inbounds nuw i8, ptr %0, i64 128
  %7 = load ptr, ptr %deprecation_reason, align 8
  %tobool18 = icmp ne ptr %7, null
  %deprecated = getelementptr inbounds nuw i8, ptr %call1, i64 34
  %frombool20 = zext i1 %tobool18 to i8
  store i8 %frombool20, ptr %deprecated, align 2
  %call21 = tail call ptr @object_class_property_find(ptr noundef nonnull %0, ptr noundef nonnull @.str.2) #7
  %tobool22 = icmp ne ptr %call21, null
  %acpi = getelementptr inbounds nuw i8, ptr %call1, i64 56
  %frombool25 = zext i1 %tobool22 to i8
  store i8 %frombool25, ptr %acpi, align 8
  %default_cpu_type = getelementptr inbounds nuw i8, ptr %0, i64 248
  %8 = load ptr, ptr %default_cpu_type, align 8
  %tobool26.not = icmp eq ptr %8, null
  br i1 %tobool26.not, label %if.end31, label %if.then27

if.then27:                                        ; preds = %if.end9
  %call29 = tail call noalias ptr @g_strdup(ptr noundef nonnull %8) #7
  %default_cpu_type30 = getelementptr inbounds nuw i8, ptr %call1, i64 40
  store ptr %call29, ptr %default_cpu_type30, align 8
  br label %if.end31

if.end31:                                         ; preds = %if.then27, %if.end9
  %default_ram_id = getelementptr inbounds nuw i8, ptr %0, i64 304
  %9 = load ptr, ptr %default_ram_id, align 8
  %tobool32.not = icmp eq ptr %9, null
  br i1 %tobool32.not, label %do.body, label %if.then33

if.then33:                                        ; preds = %if.end31
  %call35 = tail call noalias ptr @g_strdup(ptr noundef nonnull %9) #7
  %default_ram_id36 = getelementptr inbounds nuw i8, ptr %call1, i64 48
  store ptr %call35, ptr %default_ram_id36, align 8
  br label %do.body

do.body:                                          ; preds = %if.end31, %if.then33
  %call38 = tail call noalias dereferenceable_or_null(16) ptr @g_malloc(i64 noundef 16) #8
  %value = getelementptr inbounds nuw i8, ptr %call38, i64 8
  store ptr %call1, ptr %value, align 8
  store ptr %mach_list.035, ptr %call38, align 8
  %next39 = getelementptr inbounds nuw i8, ptr %el.036, i64 8
  %10 = load ptr, ptr %next39, align 8
  %tobool.not = icmp eq ptr %10, null
  br i1 %tobool.not, label %for.end, label %for.body, !llvm.loop !9

for.end:                                          ; preds = %do.body, %entry
  %mach_list.0.lcssa = phi ptr [ null, %entry ], [ %call38, %do.body ]
  tail call void @g_slist_free(ptr noundef %call) #7
  ret ptr %mach_list.0.lcssa
}